target datalayout = "e-m:e-p270:32:32-p271:32:32-p272:64:64-i64:64-i128:128-f80:128-n8:16:32:64-S128"
target triple = "x86_64-pc-linux-gnu"

%struct.URLContext = type { ptr, ptr, ptr, ptr, i32, i32, i32, i32, %struct.AVIOInterruptCB, i64, ptr, ptr, i32 }
%struct.AVIOInterruptCB = type { ptr, ptr }
%struct.HTTPContext = type { ptr, ptr, [8192 x i8], ptr, ptr, i32, i32, i64, i32, i64, i64, i64, ptr, ptr, %struct.HTTPAuthState, %struct.HTTPAuthState, ptr, ptr, ptr, ptr, ptr, ptr, ptr, i32, i32, i32, i32, i32, i32, ptr, i32, i32, i32, ptr, ptr, i32, i64, i64, ptr, ptr, ptr, i32, %struct.z_stream_s, ptr, ptr, i32, ptr, i32, i32, i32, i32, i32, ptr, i32, ptr, i32, i32, i32, i32, i32, i64, ptr, ptr, i64, i32, i32, i32, i32 }
%struct.HTTPAuthState = type { i32, [200 x i8], %struct.DigestParams, i32 }
%struct.DigestParams = type { [300 x i8], [10 x i8], [30 x i8], [300 x i8], [10 x i8], i32 }
%struct.z_stream_s = type { ptr, i32, i64, ptr, i32, i64, ptr, ptr, ptr, ptr, ptr, i32, i64, i64 }

@.str.10 = private unnamed_addr constant [4 x i8] c"tcp\00", align 1
@.str.136 = private unnamed_addr constant [1 x i8] zeroinitializer, align 1
@.str.221 = private unnamed_addr constant [8 x i8] c"CONNECT\00", align 1
@.str.222 = private unnamed_addr constant [57 x i8] c"CONNECT %s HTTP/1.1\0D\0AHost: %s\0D\0AConnection: close\0D\0A%s%s\0D\0A\00", align 1
@.str.223 = private unnamed_addr constant [7 x i8] c"Proxy-\00", align 1

; Function Attrs: nounwind uwtable
define internal i32 @http_proxy_close(ptr noundef %0) #0 {
  %2 = alloca ptr, align 8
  %3 = alloca ptr, align 8
  store ptr %0, ptr %2, align 8, !tbaa !4
  call void @llvm.lifetime.start.p0(i64 8, ptr %3) #11
  %4 = load ptr, ptr %2, align 8, !tbaa !4
  %5 = getelementptr inbounds nuw %struct.URLContext, ptr %4, i32 0, i32 2
  %6 = load ptr, ptr %5, align 8, !tbaa !9
  store ptr %6, ptr %3, align 8, !tbaa !21
  %7 = load ptr, ptr %3, align 8, !tbaa !21
  %8 = getelementptr inbounds nuw %struct.HTTPContext, ptr %7, i32 0, i32 1
  %9 = load ptr, ptr %8, align 8, !tbaa !44
  %10 = icmp ne ptr %9, null
  br i1 %10, label %11, label %15

11:                                               ; preds = %1
  %12 = load ptr, ptr %3, align 8, !tbaa !21
  %13 = getelementptr inbounds nuw %struct.HTTPContext, ptr %12, i32 0, i32 1
  %14 = call i32 @ffurl_closep(ptr noundef %13)
  br label %15

15:                                               ; preds = %11, %1
  call void @llvm.lifetime.end.p0(i64 8, ptr %3) #11
  ret i32 0
}

; Function Attrs: nounwind uwtable
define i32 @ff_http_averror(i32 noundef %0, i32 noundef %1) #0 {
  %3 = alloca i32, align 4
  %4 = alloca i32, align 4
  %5 = alloca i32, align 4
  store i32 %0, ptr %4, align 4, !tbaa !34
  store i32 %1, ptr %5, align 4, !tbaa !34
  %6 = load i32, ptr %4, align 4, !tbaa !34
  switch i32 %6, label %12 [
    i32 400, label %7
    i32 401, label %8
    i32 403, label %9
    i32 404, label %10
    i32 429, label %11
  ]

7:                                                ; preds = %2
  store i32 -808465656, ptr %3, align 4
  br label %26

8:                                                ; preds = %2
  store i32 -825242872, ptr %3, align 4
  br label %26

9:                                                ; preds = %2
  store i32 -858797304, ptr %3, align 4
  br label %26

10:                                               ; preds = %2
  store i32 -875574520, ptr %3, align 4
  br label %26

11:                                               ; preds = %2
  store i32 -959591672, ptr %3, align 4
  br label %26

12:                                               ; preds = %2
  br label %13

13:                                               ; preds = %12
  %14 = load i32, ptr %4, align 4, !tbaa !34
  %15 = icmp sge i32 %14, 400
  br i1 %15, label %16, label %20

16:                                               ; preds = %13
  %17 = load i32, ptr %4, align 4, !tbaa !34
  %18 = icmp sle i32 %17, 499
  br i1 %18, label %19, label %20

19:                                               ; preds = %16
  store i32 -1482175736, ptr %3, align 4
  br label %26

20:                                               ; preds = %16, %13
  %21 = load i32, ptr %4, align 4, !tbaa !34
  %22 = icmp sge i32 %21, 500
  br i1 %22, label %23, label %24

23:                                               ; preds = %20
  store i32 -1482175992, ptr %3, align 4
  br label %26

24:                                               ; preds = %20
  %25 = load i32, ptr %5, align 4, !tbaa !34
  store i32 %25, ptr %3, align 4
  br label %26

26:                                               ; preds = %24, %23, %19, %11, %10, %9, %8, %7
  %27 = load i32, ptr %3, align 4
  ret i32 %27
}

; Function Attrs: inlinehint nounwind uwtable
define internal i32 @ffurl_write(ptr noundef %0, ptr noundef %1, i32 noundef %2) #7 {
  %4 = alloca ptr, align 8
  %5 = alloca ptr, align 8
  %6 = alloca i32, align 4
  store ptr %0, ptr %4, align 8, !tbaa !4
  store ptr %1, ptr %5, align 8, !tbaa !17
  store i32 %2, ptr %6, align 4, !tbaa !34
  %7 = load ptr, ptr %4, align 8, !tbaa !4
  %8 = load ptr, ptr %5, align 8, !tbaa !17
  %9 = load i32, ptr %6, align 4, !tbaa !34
  %10 = call i32 @ffurl_write2(ptr noundef %7, ptr noundef %8, i32 noundef %9)
  ret i32 %10
}

; Function Attrs: nounwind uwtable
define internal i32 @http_proxy_open(ptr noundef %0, ptr noundef %1, i32 noundef %2) #0 {
  %4 = alloca i32, align 4
  %5 = alloca ptr, align 8
  %6 = alloca ptr, align 8
  %7 = alloca i32, align 4
  %8 = alloca ptr, align 8
  %9 = alloca [1024 x i8], align 16
  %10 = alloca [1024 x i8], align 16
  %11 = alloca [1024 x i8], align 16
  %12 = alloca [1024 x i8], align 16
  %13 = alloca ptr, align 8
  %14 = alloca [100 x i8], align 16
  %15 = alloca i32, align 4
  %16 = alloca i32, align 4
  %17 = alloca i32, align 4
  %18 = alloca i32, align 4
  %19 = alloca ptr, align 8
  %20 = alloca i32, align 4
  store ptr %0, ptr %5, align 8, !tbaa !4
  store ptr %1, ptr %6, align 8, !tbaa !17
  store i32 %2, ptr %7, align 4, !tbaa !34
  call void @llvm.lifetime.start.p0(i64 8, ptr %8) #11
  %21 = load ptr, ptr %5, align 8, !tbaa !4
  %22 = getelementptr inbounds nuw %struct.URLContext, ptr %21, i32 0, i32 2
  %23 = load ptr, ptr %22, align 8, !tbaa !9
  store ptr %23, ptr %8, align 8, !tbaa !21
  call void @llvm.lifetime.start.p0(i64 1024, ptr %9) #11
  call void @llvm.lifetime.start.p0(i64 1024, ptr %10) #11
  call void @llvm.lifetime.start.p0(i64 1024, ptr %11) #11
  call void @llvm.lifetime.start.p0(i64 1024, ptr %12) #11
  call void @llvm.lifetime.start.p0(i64 8, ptr %13) #11
  call void @llvm.lifetime.start.p0(i64 100, ptr %14) #11
  call void @llvm.lifetime.start.p0(i64 4, ptr %15) #11
  call void @llvm.lifetime.start.p0(i64 4, ptr %16) #11
  store i32 0, ptr %16, align 4, !tbaa !34
  call void @llvm.lifetime.start.p0(i64 4, ptr %17) #11
  store i32 0, ptr %17, align 4, !tbaa !34
  call void @llvm.lifetime.start.p0(i64 4, ptr %18) #11
  call void @llvm.lifetime.start.p0(i64 8, ptr %19) #11
  %24 = load ptr, ptr %8, align 8, !tbaa !21
  %25 = getelementptr inbounds nuw %struct.HTTPContext, ptr %24, i32 0, i32 24
  %26 = load i32, ptr %25, align 4, !tbaa !60
  %27 = icmp eq i32 %26, 1
  br i1 %27, label %28, label %31

28:                                               ; preds = %3
  %29 = load ptr, ptr %5, align 8, !tbaa !4
  %30 = getelementptr inbounds nuw %struct.URLContext, ptr %29, i32 0, i32 6
  store i32 0, ptr %30, align 8, !tbaa !61
  br label %34

31:                                               ; preds = %3
  %32 = load ptr, ptr %5, align 8, !tbaa !4
  %33 = getelementptr inbounds nuw %struct.URLContext, ptr %32, i32 0, i32 6
  store i32 1, ptr %33, align 8, !tbaa !61
  br label %34

34:                                               ; preds = %31, %28
  %35 = getelementptr inbounds [1024 x i8], ptr %11, i64 0, i64 0
  %36 = getelementptr inbounds [1024 x i8], ptr %9, i64 0, i64 0
  %37 = getelementptr inbounds [1024 x i8], ptr %12, i64 0, i64 0
  %38 = load ptr, ptr %6, align 8, !tbaa !17
  call void @av_url_split(ptr noundef null, i32 noundef 0, ptr noundef %35, i32 noundef 1024, ptr noundef %36, i32 noundef 1024, ptr noundef %15, ptr noundef %37, i32 noundef 1024, ptr noundef %38)
  %39 = getelementptr inbounds [1024 x i8], ptr %10, i64 0, i64 0
  %40 = getelementptr inbounds [1024 x i8], ptr %9, i64 0, i64 0
  %41 = load i32, ptr %15, align 4, !tbaa !34
  %42 = call i32 (ptr, i32, ptr, ptr, ptr, i32, ptr, ...) @ff_url_join(ptr noundef %39, i32 noundef 1024, ptr noundef null, ptr noundef null, ptr noundef %40, i32 noundef %41, ptr noundef null)
  %43 = getelementptr inbounds [1024 x i8], ptr %12, i64 0, i64 0
  store ptr %43, ptr %13, align 8, !tbaa !17
  %44 = load ptr, ptr %13, align 8, !tbaa !17
  %45 = load i8, ptr %44, align 1, !tbaa !64
  %46 = sext i8 %45 to i32
  %47 = icmp eq i32 %46, 47
  br i1 %47, label %48, label %51

48:                                               ; preds = %34
  %49 = load ptr, ptr %13, align 8, !tbaa !17
  %50 = getelementptr inbounds nuw i8, ptr %49, i32 1
  store ptr %50, ptr %13, align 8, !tbaa !17
  br label %51

51:                                               ; preds = %48, %34
  %52 = getelementptr inbounds [100 x i8], ptr %14, i64 0, i64 0
  %53 = getelementptr inbounds [1024 x i8], ptr %9, i64 0, i64 0
  %54 = load i32, ptr %15, align 4, !tbaa !34
  %55 = call i32 (ptr, i32, ptr, ptr, ptr, i32, ptr, ...) @ff_url_join(ptr noundef %52, i32 noundef 100, ptr noundef @.str.10, ptr noundef null, ptr noundef %53, i32 noundef %54, ptr noundef null)
  br label %56

56:                                               ; preds = %159, %51
  %57 = load ptr, ptr %8, align 8, !tbaa !21
  %58 = getelementptr inbounds nuw %struct.HTTPContext, ptr %57, i32 0, i32 1
  %59 = getelementptr inbounds [100 x i8], ptr %14, i64 0, i64 0
  %60 = load ptr, ptr %5, align 8, !tbaa !4
  %61 = getelementptr inbounds nuw %struct.URLContext, ptr %60, i32 0, i32 8
  %62 = load ptr, ptr %5, align 8, !tbaa !4
  %63 = getelementptr inbounds nuw %struct.URLContext, ptr %62, i32 0, i32 10
  %64 = load ptr, ptr %63, align 8, !tbaa !74
  %65 = load ptr, ptr %5, align 8, !tbaa !4
  %66 = getelementptr inbounds nuw %struct.URLContext, ptr %65, i32 0, i32 11
  %67 = load ptr, ptr %66, align 8, !tbaa !75
  %68 = load ptr, ptr %5, align 8, !tbaa !4
  %69 = call i32 @ffurl_open_whitelist(ptr noundef %58, ptr noundef %59, i32 noundef 3, ptr noundef %61, ptr noundef null, ptr noundef %64, ptr noundef %67, ptr noundef %68)
  store i32 %69, ptr %16, align 4, !tbaa !34
  %70 = load i32, ptr %16, align 4, !tbaa !34
  %71 = icmp slt i32 %70, 0
  br i1 %71, label %72, label %74

72:                                               ; preds = %56
  %73 = load i32, ptr %16, align 4, !tbaa !34
  store i32 %73, ptr %4, align 4
  store i32 1, ptr %20, align 4
  br label %178

74:                                               ; preds = %56
  %75 = load ptr, ptr %8, align 8, !tbaa !21
  %76 = getelementptr inbounds nuw %struct.HTTPContext, ptr %75, i32 0, i32 15
  %77 = getelementptr inbounds [1024 x i8], ptr %11, i64 0, i64 0
  %78 = load ptr, ptr %13, align 8, !tbaa !17
  %79 = call ptr @ff_http_auth_create_response(ptr noundef %76, ptr noundef %77, ptr noundef %78, ptr noundef @.str.221)
  store ptr %79, ptr %19, align 8, !tbaa !17
  %80 = load ptr, ptr %8, align 8, !tbaa !21
  %81 = getelementptr inbounds nuw %struct.HTTPContext, ptr %80, i32 0, i32 2
  %82 = getelementptr inbounds [8192 x i8], ptr %81, i64 0, i64 0
  %83 = load ptr, ptr %13, align 8, !tbaa !17
  %84 = getelementptr inbounds [1024 x i8], ptr %10, i64 0, i64 0
  %85 = load ptr, ptr %19, align 8, !tbaa !17
  %86 = icmp ne ptr %85, null
  %87 = select i1 %86, ptr @.str.223, ptr @.str.136
  %88 = load ptr, ptr %19, align 8, !tbaa !17
  %89 = icmp ne ptr %88, null
  br i1 %89, label %90, label %92

90:                                               ; preds = %74
  %91 = load ptr, ptr %19, align 8, !tbaa !17
  br label %93

92:                                               ; preds = %74
  br label %93

93:                                               ; preds = %92, %90
  %94 = phi ptr [ %91, %90 ], [ @.str.136, %92 ]
  %95 = call i32 (ptr, i64, ptr, ...) @snprintf(ptr noundef %82, i64 noundef 8192, ptr noundef @.str.222, ptr noundef %83, ptr noundef %84, ptr noundef %87, ptr noundef %94) #11
  call void @av_freep(ptr noundef %19)
  %96 = load ptr, ptr %8, align 8, !tbaa !21
  %97 = getelementptr inbounds nuw %struct.HTTPContext, ptr %96, i32 0, i32 1
  %98 = load ptr, ptr %97, align 8, !tbaa !44
  %99 = load ptr, ptr %8, align 8, !tbaa !21
  %100 = getelementptr inbounds nuw %struct.HTTPContext, ptr %99, i32 0, i32 2
  %101 = getelementptr inbounds [8192 x i8], ptr %100, i64 0, i64 0
  %102 = load ptr, ptr %8, align 8, !tbaa !21
  %103 = getelementptr inbounds nuw %struct.HTTPContext, ptr %102, i32 0, i32 2
  %104 = getelementptr inbounds [8192 x i8], ptr %103, i64 0, i64 0
  %105 = call i64 @strlen(ptr noundef %104) #12
  %106 = trunc i64 %105 to i32
  %107 = call i32 @ffurl_write(ptr noundef %98, ptr noundef %101, i32 noundef %106)
  store i32 %107, ptr %16, align 4, !tbaa !34
  %108 = icmp slt i32 %107, 0
  br i1 %108, label %109, label %110

109:                                              ; preds = %93
  br label %174

110:                                              ; preds = %93
  %111 = load ptr, ptr %8, align 8, !tbaa !21
  %112 = getelementptr inbounds nuw %struct.HTTPContext, ptr %111, i32 0, i32 2
  %113 = getelementptr inbounds [8192 x i8], ptr %112, i64 0, i64 0
  %114 = load ptr, ptr %8, align 8, !tbaa !21
  %115 = getelementptr inbounds nuw %struct.HTTPContext, ptr %114, i32 0, i32 3
  store ptr %113, ptr %115, align 8, !tbaa !76
  %116 = load ptr, ptr %8, align 8, !tbaa !21
  %117 = getelementptr inbounds nuw %struct.HTTPContext, ptr %116, i32 0, i32 2
  %118 = getelementptr inbounds [8192 x i8], ptr %117, i64 0, i64 0
  %119 = load ptr, ptr %8, align 8, !tbaa !21
  %120 = getelementptr inbounds nuw %struct.HTTPContext, ptr %119, i32 0, i32 4
  store ptr %118, ptr %120, align 8, !tbaa !77
  %121 = load ptr, ptr %8, align 8, !tbaa !21
  %122 = getelementptr inbounds nuw %struct.HTTPContext, ptr %121, i32 0, i32 5
  store i32 0, ptr %122, align 8, !tbaa !78
  %123 = load ptr, ptr %8, align 8, !tbaa !21
  %124 = getelementptr inbounds nuw %struct.HTTPContext, ptr %123, i32 0, i32 11
  store i64 -1, ptr %124, align 8, !tbaa !62
  %125 = load ptr, ptr %8, align 8, !tbaa !21
  %126 = getelementptr inbounds nuw %struct.HTTPContext, ptr %125, i32 0, i32 15
  %127 = getelementptr inbounds nuw %struct.HTTPAuthState, ptr %126, i32 0, i32 0
  %128 = load i32, ptr %127, align 8, !tbaa !56
  store i32 %128, ptr %18, align 4, !tbaa !34
  %129 = load ptr, ptr %5, align 8, !tbaa !4
  %130 = call i32 @http_read_header(ptr noundef %129)
  store i32 %130, ptr %16, align 4, !tbaa !34
  %131 = load i32, ptr %16, align 4, !tbaa !34
  %132 = icmp slt i32 %131, 0
  br i1 %132, label %133, label %134

133:                                              ; preds = %110
  br label %174

134:                                              ; preds = %110
  %135 = load i32, ptr %17, align 4, !tbaa !34
  %136 = add nsw i32 %135, 1
  store i32 %136, ptr %17, align 4, !tbaa !34
  %137 = load ptr, ptr %8, align 8, !tbaa !21
  %138 = getelementptr inbounds nuw %struct.HTTPContext, ptr %137, i32 0, i32 6
  %139 = load i32, ptr %138, align 4, !tbaa !53
  %140 = icmp eq i32 %139, 407
  br i1 %140, label %141, label %163

141:                                              ; preds = %134
  %142 = load i32, ptr %18, align 4, !tbaa !34
  %143 = icmp eq i32 %142, 0
  br i1 %143, label %150, label %144

144:                                              ; preds = %141
  %145 = load ptr, ptr %8, align 8, !tbaa !21
  %146 = getelementptr inbounds nuw %struct.HTTPContext, ptr %145, i32 0, i32 15
  %147 = getelementptr inbounds nuw %struct.HTTPAuthState, ptr %146, i32 0, i32 3
  %148 = load i32, ptr %147, align 4, !tbaa !55
  %149 = icmp ne i32 %148, 0
  br i1 %149, label %150, label %163

150:                                              ; preds = %144, %141
  %151 = load ptr, ptr %8, align 8, !tbaa !21
  %152 = getelementptr inbounds nuw %struct.HTTPContext, ptr %151, i32 0, i32 15
  %153 = getelementptr inbounds nuw %struct.HTTPAuthState, ptr %152, i32 0, i32 0
  %154 = load i32, ptr %153, align 8, !tbaa !56
  %155 = icmp ne i32 %154, 0
  br i1 %155, label %156, label %163

156:                                              ; preds = %150
  %157 = load i32, ptr %17, align 4, !tbaa !34
  %158 = icmp slt i32 %157, 2
  br i1 %158, label %159, label %163

159:                                              ; preds = %156
  %160 = load ptr, ptr %8, align 8, !tbaa !21
  %161 = getelementptr inbounds nuw %struct.HTTPContext, ptr %160, i32 0, i32 1
  %162 = call i32 @ffurl_closep(ptr noundef %161)
  br label %56

163:                                              ; preds = %156, %150, %144, %134
  %164 = load ptr, ptr %8, align 8, !tbaa !21
  %165 = getelementptr inbounds nuw %struct.HTTPContext, ptr %164, i32 0, i32 6
  %166 = load i32, ptr %165, align 4, !tbaa !53
  %167 = icmp slt i32 %166, 400
  br i1 %167, label %168, label %169

168:                                              ; preds = %163
  store i32 0, ptr %4, align 4
  store i32 1, ptr %20, align 4
  br label %178

169:                                              ; preds = %163
  %170 = load ptr, ptr %8, align 8, !tbaa !21
  %171 = getelementptr inbounds nuw %struct.HTTPContext, ptr %170, i32 0, i32 6
  %172 = load i32, ptr %171, align 4, !tbaa !53
  %173 = call i32 @ff_http_averror(i32 noundef %172, i32 noundef -5)
  store i32 %173, ptr %16, align 4, !tbaa !34
  br label %174

174:                                              ; preds = %169, %133, %109
  %175 = load ptr, ptr %5, align 8, !tbaa !4
  %176 = call i32 @http_proxy_close(ptr noundef %175)
  %177 = load i32, ptr %16, align 4, !tbaa !34
  store i32 %177, ptr %4, align 4
  store i32 1, ptr %20, align 4
  br label %178

178:                                              ; preds = %174, %168, %72
  call void @llvm.lifetime.end.p0(i64 8, ptr %19) #11
  call void @llvm.lifetime.end.p0(i64 4, ptr %18) #11
  call void @llvm.lifetime.end.p0(i64 4, ptr %17) #11
  call void @llvm.lifetime.end.p0(i64 4, ptr %16) #11
  call void @llvm.lifetime.end.p0(i64 4, ptr %15) #11
  call void @llvm.lifetime.end.p0(i64 100, ptr %14) #11
  call void @llvm.lifetime.end.p0(i64 8, ptr %13) #11
  call void @llvm.lifetime.end.p0(i64 1024, ptr %12) #11
  call void @llvm.lifetime.end.p0(i64 1024, ptr %11) #11
  call void @llvm.lifetime.end.p0(i64 1024, ptr %10) #11
  call void @llvm.lifetime.end.p0(i64 1024, ptr %9) #11
  call void @llvm.lifetime.end.p0(i64 8, ptr %8) #11
  %179 = load i32, ptr %4, align 4
  ret i32 %179
}