; Function Attrs: nounwind uwtable
define internal range(i32 -2147483648, 1) i32 @http_proxy_open(ptr noundef initializes((40, 44)) %0, ptr noundef %1, i32 %2) #2 {
  %4 = alloca [1024 x i8], align 16
  %5 = alloca [1024 x i8], align 16
  %6 = alloca [1024 x i8], align 16
  %7 = alloca [1024 x i8], align 16
  %8 = alloca [100 x i8], align 16
  %9 = alloca i32, align 4
  %10 = alloca ptr, align 8
  %11 = getelementptr inbounds nuw i8, ptr %0, i64 16
  %12 = load ptr, ptr %11, align 8, !tbaa !4
  call void @llvm.lifetime.start.p0(i64 1024, ptr nonnull %4) #15
  call void @llvm.lifetime.start.p0(i64 1024, ptr nonnull %5) #15
  call void @llvm.lifetime.start.p0(i64 1024, ptr nonnull %6) #15
  call void @llvm.lifetime.start.p0(i64 1024, ptr nonnull %7) #15
  call void @llvm.lifetime.start.p0(i64 100, ptr nonnull %8) #15
  call void @llvm.lifetime.start.p0(i64 4, ptr nonnull %9) #15
  call void @llvm.lifetime.start.p0(i64 8, ptr nonnull %10) #15
  %13 = getelementptr inbounds nuw i8, ptr %12, i64 10076
  %14 = load i32, ptr %13, align 4, !tbaa !59
  %15 = icmp ne i32 %14, 1
  %spec.select62 = zext i1 %15 to i32
  %16 = getelementptr inbounds nuw i8, ptr %0, i64 40
  store i32 %spec.select62, ptr %16, align 8, !tbaa !91
  call void @av_url_split(ptr noundef null, i32 noundef 0, ptr noundef nonnull %6, i32 noundef 1024, ptr noundef nonnull %4, i32 noundef 1024, ptr noundef nonnull %9, ptr noundef nonnull %7, i32 noundef 1024, ptr noundef %1) #15
  %17 = load i32, ptr %9, align 4, !tbaa !27
  %18 = call i32 (ptr, i32, ptr, ptr, ptr, i32, ptr, ...) @ff_url_join(ptr noundef nonnull %5, i32 noundef 1024, ptr noundef null, ptr noundef null, ptr noundef nonnull %4, i32 noundef %17, ptr noundef null) #15
  %19 = load i8, ptr %7, align 16, !tbaa !44
  %20 = icmp eq i8 %19, 47
  %spec.select.idx = zext i1 %20 to i64
  %spec.select = getelementptr inbounds nuw i8, ptr %7, i64 %spec.select.idx
  %21 = load i32, ptr %9, align 4, !tbaa !27
  %22 = call i32 (ptr, i32, ptr, ptr, ptr, i32, ptr, ...) @ff_url_join(ptr noundef nonnull %8, i32 noundef 100, ptr noundef nonnull @.str.10, ptr noundef null, ptr noundef nonnull %4, i32 noundef %21, ptr noundef null) #15
  %23 = getelementptr inbounds nuw i8, ptr %12, i64 8
  %24 = getelementptr inbounds nuw i8, ptr %0, i64 48
  %25 = getelementptr inbounds nuw i8, ptr %0, i64 72
  %26 = getelementptr inbounds nuw i8, ptr %0, i64 80
  %27 = load ptr, ptr %25, align 8, !tbaa !45
  %28 = load ptr, ptr %26, align 8, !tbaa !46
  %29 = call i32 @ffurl_open_whitelist(ptr noundef nonnull %23, ptr noundef nonnull %8, i32 noundef 3, ptr noundef nonnull %24, ptr noundef null, ptr noundef %27, ptr noundef %28, ptr noundef nonnull %0) #15
  %30 = icmp slt i32 %29, 0
  br i1 %30, label %http_proxy_close.exit, label %.lr.ph

.lr.ph:                                           ; preds = %3
  %31 = getelementptr inbounds nuw i8, ptr %12, i64 9152
  %32 = getelementptr inbounds nuw i8, ptr %12, i64 16
  %33 = getelementptr inbounds nuw i8, ptr %12, i64 8208
  %34 = getelementptr inbounds nuw i8, ptr %12, i64 8216
  %35 = getelementptr inbounds nuw i8, ptr %12, i64 8224
  %36 = getelementptr inbounds nuw i8, ptr %12, i64 8264
  %37 = getelementptr inbounds nuw i8, ptr %12, i64 8228
  %38 = getelementptr inbounds nuw i8, ptr %12, i64 10012
  br label %39

39:                                               ; preds = %.lr.ph, %64
  %40 = phi i1 [ true, %.lr.ph ], [ false, %64 ]
  %41 = call ptr @ff_http_auth_create_response(ptr noundef nonnull %31, ptr noundef nonnull %6, ptr noundef nonnull %spec.select, ptr noundef nonnull @.str.221) #15
  store ptr %41, ptr %10, align 8, !tbaa !49
  %.not = icmp eq ptr %41, null
  %42 = select i1 %.not, ptr @.str.136, ptr @.str.223
  %43 = select i1 %.not, ptr @.str.136, ptr %41
  %44 = call i32 (ptr, i64, ptr, ...) @snprintf(ptr noundef nonnull dereferenceable(1) %32, i64 noundef 8192, ptr noundef nonnull @.str.222, ptr noundef nonnull %spec.select, ptr noundef nonnull %5, ptr noundef nonnull %42, ptr noundef nonnull %43) #15
  call void @av_freep(ptr noundef nonnull %10) #15
  %45 = load ptr, ptr %23, align 8, !tbaa !37
  %46 = call i64 @strlen(ptr noundef nonnull dereferenceable(1) %32) #16
  %47 = trunc i64 %46 to i32
  %48 = call i32 @ffurl_write2(ptr noundef %45, ptr noundef nonnull %32, i32 noundef %47) #15
  %49 = icmp slt i32 %48, 0
  br i1 %49, label %ff_http_averror.exit, label %50

50:                                               ; preds = %39
  store ptr %32, ptr %33, align 8, !tbaa !73
  store ptr %32, ptr %34, align 8, !tbaa !74
  store i32 0, ptr %35, align 8, !tbaa !75
  store i64 -1, ptr %36, align 8, !tbaa !76
  %51 = load i32, ptr %31, align 8, !tbaa !89
  %52 = call fastcc i32 @http_read_header(ptr noundef nonnull %0)
  %53 = icmp slt i32 %52, 0
  br i1 %53, label %ff_http_averror.exit, label %54

54:                                               ; preds = %50
  %55 = load i32, ptr %37, align 4, !tbaa !51
  %56 = icmp eq i32 %55, 407
  br i1 %56, label %57, label %70

57:                                               ; preds = %54
  %58 = icmp eq i32 %51, 0
  br i1 %58, label %61, label %59

59:                                               ; preds = %57
  %60 = load i32, ptr %38, align 4, !tbaa !88
  %.not50 = icmp eq i32 %60, 0
  br i1 %.not50, label %ff_http_averror.exit, label %61

61:                                               ; preds = %59, %57
  %62 = load i32, ptr %31, align 8, !tbaa !89
  %63 = icmp ne i32 %62, 0
  %or.cond = and i1 %40, %63
  br i1 %or.cond, label %64, label %ff_http_averror.exit

64:                                               ; preds = %61
  %65 = call i32 @ffurl_closep(ptr noundef nonnull %23) #15
  %66 = load ptr, ptr %25, align 8, !tbaa !45
  %67 = load ptr, ptr %26, align 8, !tbaa !46
  %68 = call i32 @ffurl_open_whitelist(ptr noundef nonnull %23, ptr noundef nonnull %8, i32 noundef 3, ptr noundef nonnull %24, ptr noundef null, ptr noundef %66, ptr noundef %67, ptr noundef nonnull %0) #15
  %69 = icmp slt i32 %68, 0
  br i1 %69, label %http_proxy_close.exit, label %39

70:                                               ; preds = %54
  %71 = icmp slt i32 %55, 400
  br i1 %71, label %http_proxy_close.exit, label %72

72:                                               ; preds = %70
  switch i32 %55, label %77 [
    i32 400, label %ff_http_averror.exit
    i32 401, label %73
    i32 403, label %74
    i32 404, label %75
    i32 429, label %76
  ]

73:                                               ; preds = %72
  br label %ff_http_averror.exit

74:                                               ; preds = %72
  br label %ff_http_averror.exit

75:                                               ; preds = %72
  br label %ff_http_averror.exit

76:                                               ; preds = %72
  br label %ff_http_averror.exit

77:                                               ; preds = %72
  %78 = add nsw i32 %55, -400
  %or.cond.i = icmp samesign ult i32 %78, 100
  %spec.select54 = select i1 %or.cond.i, i32 -1482175736, i32 -1482175992
  br label %ff_http_averror.exit

ff_http_averror.exit:                             ; preds = %59, %61, %50, %39, %77, %76, %75, %74, %73, %72
  %.043 = phi i32 [ -959591672, %76 ], [ -875574520, %75 ], [ -858797304, %74 ], [ -825242872, %73 ], [ -808465656, %72 ], [ %spec.select54, %77 ], [ -1482175736, %59 ], [ -1482175736, %61 ], [ %52, %50 ], [ %48, %39 ]
  %79 = load ptr, ptr %11, align 8, !tbaa !4
  %80 = getelementptr inbounds nuw i8, ptr %79, i64 8
  %81 = load ptr, ptr %80, align 8, !tbaa !37
  %.not.i = icmp eq ptr %81, null
  br i1 %.not.i, label %http_proxy_close.exit, label %82

82:                                               ; preds = %ff_http_averror.exit
  %83 = call i32 @ffurl_closep(ptr noundef nonnull %80) #15
  br label %http_proxy_close.exit

http_proxy_close.exit:                            ; preds = %64, %3, %82, %ff_http_averror.exit, %70
  %.0 = phi i32 [ 0, %70 ], [ %.043, %ff_http_averror.exit ], [ %.043, %82 ], [ %29, %3 ], [ %68, %64 ]
  call void @llvm.lifetime.end.p0(i64 8, ptr nonnull %10) #15
  call void @llvm.lifetime.end.p0(i64 4, ptr nonnull %9) #15
  call void @llvm.lifetime.end.p0(i64 100, ptr nonnull %8) #15
  call void @llvm.lifetime.end.p0(i64 1024, ptr nonnull %7) #15
  call void @llvm.lifetime.end.p0(i64 1024, ptr nonnull %6) #15
  call void @llvm.lifetime.end.p0(i64 1024, ptr nonnull %5) #15
  call void @llvm.lifetime.end.p0(i64 1024, ptr nonnull %4) #15
  ret i32 %.0
}